target datalayout = "e-m:e-p270:32:32-p271:32:32-p272:64:64-i64:64-i128:128-f80:128-n8:16:32:64-S128"
target triple = "x86_64-pc-linux-gnu"

%"class.smt::eq_justification" = type { ptr }
%"class.smt::enode" = type { ptr, ptr, ptr, ptr, i32, i32, i32, i16, i32, i8, i8, %class.ptr_vector, %class.id_var_list, %"struct.smt::trans_justification", %class.approx_set, %class.approx_set, [0 x ptr] }
%class.ptr_vector = type { %class.vector }
%class.vector = type { ptr }
%class.id_var_list = type { i32, ptr }
%"struct.smt::trans_justification" = type { ptr, %"class.smt::eq_justification" }
%class.approx_set = type { %class.approx_set_tpl }
%class.approx_set_tpl = type { i64 }
%"struct.smt::almost_cg_table::cg_eq" = type { ptr, ptr }
%class.app = type { %class.expr, ptr, i32, %struct.app_flags, [0 x ptr] }
%class.expr = type { %class.ast }
%class.ast = type { i32, i32, i32, i32 }
%struct.app_flags = type <{ i16, i8, i8 }>

; Function Attrs: mustprogress nounwind uwtable
define linkonce_odr hidden noundef i32 @_ZNK3app12get_num_argsEv(ptr noundef nonnull align 8 dereferenceable(32) %0) #4 comdat align 2 {
  %2 = alloca ptr, align 8
  store ptr %0, ptr %2, align 8, !tbaa !50
  %3 = load ptr, ptr %2, align 8
  %4 = getelementptr inbounds nuw %class.app, ptr %3, i32 0, i32 2
  %5 = load i32, ptr %4, align 8, !tbaa !95
  ret i32 %5
}

; Function Attrs: mustprogress nounwind uwtable
define linkonce_odr hidden noundef ptr @_ZNK3smt5enode8get_rootEv(ptr noundef nonnull align 8 dereferenceable(112) %0) #4 comdat align 2 {
  %2 = alloca ptr, align 8
  store ptr %0, ptr %2, align 8, !tbaa !24
  %3 = load ptr, ptr %2, align 8
  %4 = getelementptr inbounds nuw %"class.smt::enode", ptr %3, i32 0, i32 1
  %5 = load ptr, ptr %4, align 8, !tbaa !57
  ret ptr %5
}

; Function Attrs: mustprogress nounwind uwtable
define linkonce_odr hidden noundef ptr @_ZNK3smt5enode7get_argEj(ptr noundef nonnull align 8 dereferenceable(112) %0, i32 noundef %1) #4 comdat align 2 {
  %3 = alloca ptr, align 8
  %4 = alloca i32, align 4
  store ptr %0, ptr %3, align 8, !tbaa !24
  store i32 %1, ptr %4, align 4, !tbaa !8
  %5 = load ptr, ptr %3, align 8
  %6 = getelementptr inbounds nuw %"class.smt::enode", ptr %5, i32 0, i32 16
  %7 = load i32, ptr %4, align 4, !tbaa !8
  %8 = zext i32 %7 to i64
  %9 = getelementptr inbounds nuw [0 x ptr], ptr %6, i64 0, i64 %8
  %10 = load ptr, ptr %9, align 8, !tbaa !24
  ret ptr %10
}

; Function Attrs: mustprogress uwtable
define linkonce_odr hidden noundef i32 @_ZNK3smt5enode12get_num_argsEv(ptr noundef nonnull align 8 dereferenceable(112) %0) #6 comdat align 2 {
  %2 = alloca ptr, align 8
  store ptr %0, ptr %2, align 8, !tbaa !24
  %3 = load ptr, ptr %2, align 8
  %4 = getelementptr inbounds nuw %"class.smt::enode", ptr %3, i32 0, i32 7
  %5 = load i16, ptr %4, align 4
  %6 = lshr i16 %5, 3
  %7 = and i16 %6, 1
  %8 = zext i16 %7 to i32
  %9 = icmp ne i32 %8, 0
  br i1 %9, label %10, label %11

10:                                               ; preds = %1
  br label %15

11:                                               ; preds = %1
  %12 = getelementptr inbounds nuw %"class.smt::enode", ptr %3, i32 0, i32 0
  %13 = load ptr, ptr %12, align 8, !tbaa !28
  %14 = call noundef i32 @_ZNK3app12get_num_argsEv(ptr noundef nonnull align 8 dereferenceable(32) %13)
  br label %15

15:                                               ; preds = %11, %10
  %16 = phi i32 [ 0, %10 ], [ %14, %11 ]
  ret i32 %16
}

; Function Attrs: mustprogress nounwind uwtable
define linkonce_odr hidden noundef ptr @_ZNK3app8get_declEv(ptr noundef nonnull align 8 dereferenceable(32) %0) #4 comdat align 2 {
  %2 = alloca ptr, align 8
  store ptr %0, ptr %2, align 8, !tbaa !50
  %3 = load ptr, ptr %2, align 8
  %4 = getelementptr inbounds nuw %class.app, ptr %3, i32 0, i32 1
  %5 = load ptr, ptr %4, align 8, !tbaa !51
  ret ptr %5
}

; Function Attrs: mustprogress nounwind uwtable
define linkonce_odr hidden noundef ptr @_ZNK3smt5enode8get_exprEv(ptr noundef nonnull align 8 dereferenceable(112) %0) #4 comdat align 2 {
  %2 = alloca ptr, align 8
  store ptr %0, ptr %2, align 8, !tbaa !24
  %3 = load ptr, ptr %2, align 8
  %4 = getelementptr inbounds nuw %"class.smt::enode", ptr %3, i32 0, i32 0
  %5 = load ptr, ptr %4, align 8, !tbaa !28
  ret ptr %5
}

; Function Attrs: mustprogress uwtable
define hidden noundef zeroext i1 @_ZNK3smt15almost_cg_table5cg_eqclEPNS_5enodeES3_(ptr noundef nonnull align 8 dereferenceable(16) %0, ptr noundef %1, ptr noundef %2) #6 align 2 {
  %4 = alloca i1, align 1
  %5 = alloca ptr, align 8
  %6 = alloca ptr, align 8
  %7 = alloca ptr, align 8
  %8 = alloca i32, align 4
  %9 = alloca i32, align 4
  %10 = alloca i32, align 4
  %11 = alloca ptr, align 8
  %12 = alloca ptr, align 8
  store ptr %0, ptr %5, align 8, !tbaa !44
  store ptr %1, ptr %6, align 8, !tbaa !24
  store ptr %2, ptr %7, align 8, !tbaa !24
  %13 = load ptr, ptr %5, align 8
  %14 = load ptr, ptr %6, align 8, !tbaa !24
  %15 = call noundef ptr @_ZNK3smt5enode8get_exprEv(ptr noundef nonnull align 8 dereferenceable(112) %14)
  %16 = call noundef ptr @_ZNK3app8get_declEv(ptr noundef nonnull align 8 dereferenceable(32) %15)
  %17 = load ptr, ptr %7, align 8, !tbaa !24
  %18 = call noundef ptr @_ZNK3smt5enode8get_exprEv(ptr noundef nonnull align 8 dereferenceable(112) %17)
  %19 = call noundef ptr @_ZNK3app8get_declEv(ptr noundef nonnull align 8 dereferenceable(32) %18)
  %20 = icmp ne ptr %16, %19
  br i1 %20, label %21, label %22

21:                                               ; preds = %3
  store i1 false, ptr %4, align 1
  br label %84

22:                                               ; preds = %3
  call void @llvm.lifetime.start.p0(i64 4, ptr %8) #3
  %23 = load ptr, ptr %6, align 8, !tbaa !24
  %24 = call noundef i32 @_ZNK3smt5enode12get_num_argsEv(ptr noundef nonnull align 8 dereferenceable(112) %23)
  store i32 %24, ptr %8, align 4, !tbaa !8
  %25 = load i32, ptr %8, align 4, !tbaa !8
  %26 = load ptr, ptr %7, align 8, !tbaa !24
  %27 = call noundef i32 @_ZNK3smt5enode12get_num_argsEv(ptr noundef nonnull align 8 dereferenceable(112) %26)
  %28 = icmp ne i32 %25, %27
  br i1 %28, label %29, label %30

29:                                               ; preds = %22
  store i1 false, ptr %4, align 1
  store i32 1, ptr %9, align 4
  br label %83

30:                                               ; preds = %22
  call void @llvm.lifetime.start.p0(i64 4, ptr %10) #3
  store i32 0, ptr %10, align 4, !tbaa !8
  br label %31

31:                                               ; preds = %77, %30
  %32 = load i32, ptr %10, align 4, !tbaa !8
  %33 = load i32, ptr %8, align 4, !tbaa !8
  %34 = icmp ult i32 %32, %33
  br i1 %34, label %36, label %35

35:                                               ; preds = %31
  store i32 2, ptr %9, align 4
  br label %80

36:                                               ; preds = %31
  call void @llvm.lifetime.start.p0(i64 8, ptr %11) #3
  %37 = load ptr, ptr %6, align 8, !tbaa !24
  %38 = load i32, ptr %10, align 4, !tbaa !8
  %39 = call noundef ptr @_ZNK3smt5enode7get_argEj(ptr noundef nonnull align 8 dereferenceable(112) %37, i32 noundef %38)
  %40 = call noundef ptr @_ZNK3smt5enode8get_rootEv(ptr noundef nonnull align 8 dereferenceable(112) %39)
  store ptr %40, ptr %11, align 8, !tbaa !24
  call void @llvm.lifetime.start.p0(i64 8, ptr %12) #3
  %41 = load ptr, ptr %7, align 8, !tbaa !24
  %42 = load i32, ptr %10, align 4, !tbaa !8
  %43 = call noundef ptr @_ZNK3smt5enode7get_argEj(ptr noundef nonnull align 8 dereferenceable(112) %41, i32 noundef %42)
  %44 = call noundef ptr @_ZNK3smt5enode8get_rootEv(ptr noundef nonnull align 8 dereferenceable(112) %43)
  store ptr %44, ptr %12, align 8, !tbaa !24
  %45 = load ptr, ptr %11, align 8, !tbaa !24
  %46 = load ptr, ptr %12, align 8, !tbaa !24
  %47 = icmp eq ptr %45, %46
  br i1 %47, label %48, label %49

48:                                               ; preds = %36
  store i32 4, ptr %9, align 4
  br label %75

49:                                               ; preds = %36
  %50 = load ptr, ptr %11, align 8, !tbaa !24
  %51 = getelementptr inbounds nuw %"struct.smt::almost_cg_table::cg_eq", ptr %13, i32 0, i32 0
  %52 = load ptr, ptr %51, align 8, !tbaa !46
  %53 = load ptr, ptr %52, align 8, !tbaa !24
  %54 = icmp eq ptr %50, %53
  br i1 %54, label %61, label %55

55:                                               ; preds = %49
  %56 = load ptr, ptr %11, align 8, !tbaa !24
  %57 = getelementptr inbounds nuw %"struct.smt::almost_cg_table::cg_eq", ptr %13, i32 0, i32 1
  %58 = load ptr, ptr %57, align 8, !tbaa !48
  %59 = load ptr, ptr %58, align 8, !tbaa !24
  %60 = icmp eq ptr %56, %59
  br i1 %60, label %61, label %74

61:                                               ; preds = %55, %49
  %62 = load ptr, ptr %12, align 8, !tbaa !24
  %63 = getelementptr inbounds nuw %"struct.smt::almost_cg_table::cg_eq", ptr %13, i32 0, i32 0
  %64 = load ptr, ptr %63, align 8, !tbaa !46
  %65 = load ptr, ptr %64, align 8, !tbaa !24
  %66 = icmp eq ptr %62, %65
  br i1 %66, label %73, label %67

67:                                               ; preds = %61
  %68 = load ptr, ptr %12, align 8, !tbaa !24
  %69 = getelementptr inbounds nuw %"struct.smt::almost_cg_table::cg_eq", ptr %13, i32 0, i32 1
  %70 = load ptr, ptr %69, align 8, !tbaa !48
  %71 = load ptr, ptr %70, align 8, !tbaa !24
  %72 = icmp eq ptr %68, %71
  br i1 %72, label %73, label %74

73:                                               ; preds = %67, %61
  store i32 4, ptr %9, align 4
  br label %75

74:                                               ; preds = %67, %55
  store i1 false, ptr %4, align 1
  store i32 1, ptr %9, align 4
  br label %75

75:                                               ; preds = %74, %73, %48
  call void @llvm.lifetime.end.p0(i64 8, ptr %12) #3
  call void @llvm.lifetime.end.p0(i64 8, ptr %11) #3
  %76 = load i32, ptr %9, align 4
  switch i32 %76, label %80 [
    i32 4, label %77
  ]

77:                                               ; preds = %75
  %78 = load i32, ptr %10, align 4, !tbaa !8
  %79 = add i32 %78, 1
  store i32 %79, ptr %10, align 4, !tbaa !8
  br label %31, !llvm.loop !49

80:                                               ; preds = %75, %35
  call void @llvm.lifetime.end.p0(i64 4, ptr %10) #3
  %81 = load i32, ptr %9, align 4
  switch i32 %81, label %83 [
    i32 2, label %82
  ]

82:                                               ; preds = %80
  store i1 true, ptr %4, align 1
  store i32 1, ptr %9, align 4
  br label %83

83:                                               ; preds = %82, %80, %29
  call void @llvm.lifetime.end.p0(i64 4, ptr %8) #3
  br label %84

84:                                               ; preds = %83, %21
  %85 = load i1, ptr %4, align 1
  ret i1 %85
}