; Function Attrs: mustprogress nofree norecurse nosync nounwind willreturn memory(read, inaccessiblemem: none) uwtable
define hidden noundef zeroext i1 @_ZNK3smt15almost_cg_table5cg_eqclEPNS_5enodeES3_(ptr noundef nonnull readonly align 8 captures(none) dereferenceable(16) %0, ptr noundef readonly captures(none) %1, ptr noundef readonly captures(none) %2) local_unnamed_addr #4 align 2 {
  %4 = load ptr, ptr %1, align 8, !tbaa !3
  %5 = getelementptr inbounds nuw i8, ptr %4, i64 16
  %6 = load ptr, ptr %5, align 8, !tbaa !23
  %7 = load ptr, ptr %2, align 8, !tbaa !3
  %8 = getelementptr inbounds nuw i8, ptr %7, i64 16
  %9 = load ptr, ptr %8, align 8, !tbaa !23
  %.not = icmp eq ptr %6, %9
  br i1 %.not, label %10, label %.critedge

10:                                               ; preds = %3
  %11 = getelementptr inbounds nuw i8, ptr %1, i64 44
  %12 = load i16, ptr %11, align 4
  %13 = and i16 %12, 8
  %.not.i = icmp eq i16 %13, 0
  br i1 %.not.i, label %14, label %_ZNK3smt5enode12get_num_argsEv.exit

14:                                               ; preds = %10
  %15 = getelementptr inbounds nuw i8, ptr %4, i64 24
  %16 = load i32, ptr %15, align 8, !tbaa !30
  br label %_ZNK3smt5enode12get_num_argsEv.exit

_ZNK3smt5enode12get_num_argsEv.exit:              ; preds = %10, %14
  %17 = phi i32 [ %16, %14 ], [ 0, %10 ]
  %18 = getelementptr inbounds nuw i8, ptr %2, i64 44
  %19 = load i16, ptr %18, align 4
  %20 = and i16 %19, 8
  %.not.i30 = icmp eq i16 %20, 0
  br i1 %.not.i30, label %21, label %_ZNK3smt5enode12get_num_argsEv.exit31

21:                                               ; preds = %_ZNK3smt5enode12get_num_argsEv.exit
  %22 = getelementptr inbounds nuw i8, ptr %7, i64 24
  %23 = load i32, ptr %22, align 8, !tbaa !30
  br label %_ZNK3smt5enode12get_num_argsEv.exit31

_ZNK3smt5enode12get_num_argsEv.exit31:            ; preds = %_ZNK3smt5enode12get_num_argsEv.exit, %21
  %24 = phi i32 [ %23, %21 ], [ 0, %_ZNK3smt5enode12get_num_argsEv.exit ]
  %.not28 = icmp eq i32 %17, %24
  br i1 %.not28, label %.preheader, label %.critedge

.preheader:                                       ; preds = %_ZNK3smt5enode12get_num_argsEv.exit31
  %.not2932 = icmp eq i32 %17, 0
  br i1 %.not2932, label %.critedge, label %.lr.ph

.lr.ph:                                           ; preds = %.preheader
  %25 = getelementptr inbounds nuw i8, ptr %0, i64 8
  %26 = getelementptr inbounds nuw i8, ptr %1, i64 112
  %27 = getelementptr inbounds nuw i8, ptr %2, i64 112
  %28 = load ptr, ptr %0, align 8
  %29 = load ptr, ptr %25, align 8
  %wide.trip.count = zext i32 %17 to i64
  br label %30

30:                                               ; preds = %.lr.ph, %51
  %indvars.iv = phi i64 [ 0, %.lr.ph ], [ %indvars.iv.next, %51 ]
  %31 = getelementptr inbounds nuw [0 x ptr], ptr %26, i64 0, i64 %indvars.iv
  %32 = load ptr, ptr %31, align 8, !tbaa !33
  %33 = getelementptr inbounds nuw i8, ptr %32, i64 8
  %34 = load ptr, ptr %33, align 8, !tbaa !34
  %35 = getelementptr inbounds nuw [0 x ptr], ptr %27, i64 0, i64 %indvars.iv
  %36 = load ptr, ptr %35, align 8, !tbaa !33
  %37 = getelementptr inbounds nuw i8, ptr %36, i64 8
  %38 = load ptr, ptr %37, align 8, !tbaa !34
  %39 = icmp eq ptr %34, %38
  br i1 %39, label %51, label %40

40:                                               ; preds = %30
  %41 = load ptr, ptr %28, align 8, !tbaa !33
  %42 = icmp eq ptr %34, %41
  br i1 %42, label %46, label %43

43:                                               ; preds = %40
  %44 = load ptr, ptr %29, align 8, !tbaa !33
  %45 = icmp eq ptr %34, %44
  br i1 %45, label %46, label %.critedge

46:                                               ; preds = %43, %40
  %47 = icmp eq ptr %38, %41
  br i1 %47, label %51, label %48

48:                                               ; preds = %46
  %49 = load ptr, ptr %29, align 8, !tbaa !33
  %50 = icmp eq ptr %38, %49
  br i1 %50, label %51, label %.critedge

51:                                               ; preds = %30, %48, %46
  %indvars.iv.next = add nuw nsw i64 %indvars.iv, 1
  %exitcond.not = icmp eq i64 %indvars.iv.next, %wide.trip.count
  br i1 %exitcond.not, label %.critedge, label %30, !llvm.loop !39

.critedge:                                        ; preds = %43, %48, %51, %.preheader, %_ZNK3smt5enode12get_num_argsEv.exit31, %3
  %.0 = phi i1 [ false, %3 ], [ false, %_ZNK3smt5enode12get_num_argsEv.exit31 ], [ true, %.preheader ], [ false, %43 ], [ false, %48 ], [ true, %51 ]
  ret i1 %.0
}